; Function Attrs: nounwind uwtable
define internal ptr @dataPrepareDownlink(ptr readnone captures(none) %0, i32 noundef %1) #0 {
  %3 = tail call ptr @palloc(i64 noundef 10) #11
  %4 = icmp slt i32 %1, 0
  br i1 %4, label %5, label %11

5:                                                ; preds = %2
  %6 = load ptr, ptr @LocalBufferBlockPointers, align 8
  %7 = xor i32 %1, -1
  %8 = zext nneg i32 %7 to i64
  %9 = getelementptr inbounds nuw ptr, ptr %6, i64 %8
  %10 = load ptr, ptr %9, align 8
  br label %BufferGetPage.exit

11:                                               ; preds = %2
  %12 = load ptr, ptr @BufferBlocks, align 8
  %13 = add nsw i32 %1, -1
  %14 = sext i32 %13 to i64
  %15 = shl nsw i64 %14, 13
  %16 = getelementptr inbounds nuw i8, ptr %12, i64 %15
  br label %BufferGetPage.exit

BufferGetPage.exit:                               ; preds = %5, %11
  %.0.i.i = phi ptr [ %10, %5 ], [ %16, %11 ]
  %17 = tail call i32 @BufferGetBlockNumber(i32 noundef %1) #11
  %18 = lshr i32 %17, 16
  %19 = trunc nuw i32 %18 to i16
  store i16 %19, ptr %3, align 2
  %20 = trunc i32 %17 to i16
  %21 = getelementptr inbounds nuw i8, ptr %3, i64 2
  store i16 %20, ptr %21, align 2
  %22 = getelementptr inbounds nuw i8, ptr %3, i64 4
  %23 = getelementptr inbounds nuw i8, ptr %.0.i.i, i64 24
  tail call void @llvm.memcpy.p0.p0.i64(ptr noundef nonnull align 2 dereferenceable(6) %22, ptr noundef nonnull align 2 dereferenceable(6) %23, i64 6, i1 false)
  ret ptr %3
}